; Function Attrs: nounwind uwtable
define dso_local void @Curl_ratelimit(ptr noundef captures(none) %0, i64 %1, i32 %2) local_unnamed_addr #0 {
  %4 = getelementptr inbounds nuw i8, ptr %0, i64 824
  %5 = load i64, ptr %4, align 8, !tbaa !105
  %.not = icmp eq i64 %5, 0
  br i1 %.not, label %17, label %6

6:                                                ; preds = %3
  %7 = getelementptr inbounds nuw i8, ptr %0, i64 2672
  %8 = load i64, ptr %7, align 8
  %9 = getelementptr inbounds nuw i8, ptr %0, i64 2680
  %10 = load i32, ptr %9, align 8
  %11 = tail call i64 @Curl_timediff(i64 %1, i32 %2, i64 %8, i32 %10) #8
  %12 = icmp sgt i64 %11, 2999
  br i1 %12, label %13, label %17

13:                                               ; preds = %6
  store i64 %1, ptr %7, align 8, !tbaa !93
  store i32 %2, ptr %9, align 8, !tbaa !99
  %14 = getelementptr inbounds nuw i8, ptr %0, i64 2656
  %15 = load i64, ptr %14, align 8, !tbaa !83
  %16 = getelementptr inbounds nuw i8, ptr %0, i64 2688
  store i64 %15, ptr %16, align 8, !tbaa !104
  br label %17

17:                                               ; preds = %6, %13, %3
  %18 = getelementptr inbounds nuw i8, ptr %0, i64 816
  %19 = load i64, ptr %18, align 8, !tbaa !106
  %.not17 = icmp eq i64 %19, 0
  br i1 %.not17, label %31, label %20

20:                                               ; preds = %17
  %21 = getelementptr inbounds nuw i8, ptr %0, i64 2624
  %22 = load i64, ptr %21, align 8
  %23 = getelementptr inbounds nuw i8, ptr %0, i64 2632
  %24 = load i32, ptr %23, align 8
  %25 = tail call i64 @Curl_timediff(i64 %1, i32 %2, i64 %22, i32 %24) #8
  %26 = icmp sgt i64 %25, 2999
  br i1 %26, label %27, label %31

27:                                               ; preds = %20
  store i64 %1, ptr %21, align 8, !tbaa !93
  store i32 %2, ptr %23, align 8, !tbaa !99
  %28 = getelementptr inbounds nuw i8, ptr %0, i64 2608
  %29 = load i64, ptr %28, align 8, !tbaa !85
  %30 = getelementptr inbounds nuw i8, ptr %0, i64 2640
  store i64 %29, ptr %30, align 8, !tbaa !103
  br label %31

31:                                               ; preds = %20, %27, %17
  ret void
}